
sh:     file format elf32-littleriscv


Disassembly of section .text.init:

00000000 <_start>:
   0:	0040006f          	j	4 <reset_vector>

00000004 <reset_vector>:
   4:	00002097          	auipc	ra,0x2
   8:	ffc08093          	addi	ra,ra,-4 # 2000 <begin_signature>
   c:	0aa00113          	li	sp,170
  10:	00209023          	sh	sp,0(ra)
  14:	00009703          	lh	a4,0(ra)
  18:	0aa00393          	li	t2,170
  1c:	00200193          	li	gp,2
  20:	44771e63          	bne	a4,t2,47c <fail>

00000024 <test_3>:
  24:	00002097          	auipc	ra,0x2
  28:	fdc08093          	addi	ra,ra,-36 # 2000 <begin_signature>
  2c:	ffffb137          	lui	sp,0xffffb
  30:	a0010113          	addi	sp,sp,-1536 # ffffaa00 <_end+0xffff89e0>
  34:	00209123          	sh	sp,2(ra)
  38:	00209703          	lh	a4,2(ra)
  3c:	ffffb3b7          	lui	t2,0xffffb
  40:	a0038393          	addi	t2,t2,-1536 # ffffaa00 <_end+0xffff89e0>
  44:	00300193          	li	gp,3
  48:	42771a63          	bne	a4,t2,47c <fail>

0000004c <test_4>:
  4c:	00002097          	auipc	ra,0x2
  50:	fb408093          	addi	ra,ra,-76 # 2000 <begin_signature>
  54:	beef1137          	lui	sp,0xbeef1
  58:	aa010113          	addi	sp,sp,-1376 # beef0aa0 <_end+0xbeeeea80>
  5c:	00209223          	sh	sp,4(ra)
  60:	0040a703          	lw	a4,4(ra)
  64:	beef13b7          	lui	t2,0xbeef1
  68:	aa038393          	addi	t2,t2,-1376 # beef0aa0 <_end+0xbeeeea80>
  6c:	00400193          	li	gp,4
  70:	40771663          	bne	a4,t2,47c <fail>

00000074 <test_5>:
  74:	00002097          	auipc	ra,0x2
  78:	f8c08093          	addi	ra,ra,-116 # 2000 <begin_signature>
  7c:	ffffa137          	lui	sp,0xffffa
  80:	00a10113          	addi	sp,sp,10 # ffffa00a <_end+0xffff7fea>
  84:	00209323          	sh	sp,6(ra)
  88:	00609703          	lh	a4,6(ra)
  8c:	ffffa3b7          	lui	t2,0xffffa
  90:	00a38393          	addi	t2,t2,10 # ffffa00a <_end+0xffff7fea>
  94:	00500193          	li	gp,5
  98:	3e771263          	bne	a4,t2,47c <fail>

0000009c <test_6>:
  9c:	00002097          	auipc	ra,0x2
  a0:	f7208093          	addi	ra,ra,-142 # 200e <tdat8>
  a4:	0aa00113          	li	sp,170
  a8:	fe209d23          	sh	sp,-6(ra)
  ac:	ffa09703          	lh	a4,-6(ra)
  b0:	0aa00393          	li	t2,170
  b4:	00600193          	li	gp,6
  b8:	3c771263          	bne	a4,t2,47c <fail>

000000bc <test_7>:
  bc:	00002097          	auipc	ra,0x2
  c0:	f5208093          	addi	ra,ra,-174 # 200e <tdat8>
  c4:	ffffb137          	lui	sp,0xffffb
  c8:	a0010113          	addi	sp,sp,-1536 # ffffaa00 <_end+0xffff89e0>
  cc:	fe209e23          	sh	sp,-4(ra)
  d0:	ffc09703          	lh	a4,-4(ra)
  d4:	ffffb3b7          	lui	t2,0xffffb
  d8:	a0038393          	addi	t2,t2,-1536 # ffffaa00 <_end+0xffff89e0>
  dc:	00700193          	li	gp,7
  e0:	38771e63          	bne	a4,t2,47c <fail>

000000e4 <test_8>:
  e4:	00002097          	auipc	ra,0x2
  e8:	f2a08093          	addi	ra,ra,-214 # 200e <tdat8>
  ec:	00001137          	lui	sp,0x1
  f0:	aa010113          	addi	sp,sp,-1376 # aa0 <pass+0x60c>
  f4:	fe209f23          	sh	sp,-2(ra)
  f8:	ffe09703          	lh	a4,-2(ra)
  fc:	000013b7          	lui	t2,0x1
 100:	aa038393          	addi	t2,t2,-1376 # aa0 <pass+0x60c>
 104:	00800193          	li	gp,8
 108:	36771a63          	bne	a4,t2,47c <fail>

0000010c <test_9>:
 10c:	00002097          	auipc	ra,0x2
 110:	f0208093          	addi	ra,ra,-254 # 200e <tdat8>
 114:	ffffa137          	lui	sp,0xffffa
 118:	00a10113          	addi	sp,sp,10 # ffffa00a <_end+0xffff7fea>
 11c:	00209023          	sh	sp,0(ra)
 120:	00009703          	lh	a4,0(ra)
 124:	ffffa3b7          	lui	t2,0xffffa
 128:	00a38393          	addi	t2,t2,10 # ffffa00a <_end+0xffff7fea>
 12c:	00900193          	li	gp,9
 130:	34771663          	bne	a4,t2,47c <fail>

00000134 <test_10>:
 134:	00002097          	auipc	ra,0x2
 138:	edc08093          	addi	ra,ra,-292 # 2010 <tdat9>
 13c:	12345137          	lui	sp,0x12345
 140:	67810113          	addi	sp,sp,1656 # 12345678 <_end+0x12343658>
 144:	fe008213          	addi	tp,ra,-32
 148:	02221023          	sh	sp,32(tp) # 20 <reset_vector+0x1c>
 14c:	00009283          	lh	t0,0(ra)
 150:	000053b7          	lui	t2,0x5
 154:	67838393          	addi	t2,t2,1656 # 5678 <_end+0x3658>
 158:	00a00193          	li	gp,10
 15c:	32729063          	bne	t0,t2,47c <fail>

00000160 <test_11>:
 160:	00002097          	auipc	ra,0x2
 164:	eb008093          	addi	ra,ra,-336 # 2010 <tdat9>
 168:	00003137          	lui	sp,0x3
 16c:	09810113          	addi	sp,sp,152 # 3098 <_end+0x1078>
 170:	ffb08093          	addi	ra,ra,-5
 174:	002093a3          	sh	sp,7(ra)
 178:	00002217          	auipc	tp,0x2
 17c:	e9a20213          	addi	tp,tp,-358 # 2012 <tdat10>
 180:	00021283          	lh	t0,0(tp) # 0 <_start>
 184:	000033b7          	lui	t2,0x3
 188:	09838393          	addi	t2,t2,152 # 3098 <_end+0x1078>
 18c:	00b00193          	li	gp,11
 190:	2e729663          	bne	t0,t2,47c <fail>

00000194 <test_12>:
 194:	00c00193          	li	gp,12
 198:	00000213          	li	tp,0
 19c:	ffffd0b7          	lui	ra,0xffffd
 1a0:	cdd08093          	addi	ra,ra,-803 # ffffccdd <_end+0xffffacbd>
 1a4:	00002117          	auipc	sp,0x2
 1a8:	e5c10113          	addi	sp,sp,-420 # 2000 <begin_signature>
 1ac:	00111023          	sh	ra,0(sp)
 1b0:	00011703          	lh	a4,0(sp)
 1b4:	ffffd3b7          	lui	t2,0xffffd
 1b8:	cdd38393          	addi	t2,t2,-803 # ffffccdd <_end+0xffffacbd>
 1bc:	2c771063          	bne	a4,t2,47c <fail>
 1c0:	00120213          	addi	tp,tp,1 # 1 <_start+0x1>
 1c4:	00200293          	li	t0,2
 1c8:	fc521ae3          	bne	tp,t0,19c <test_12+0x8>

000001cc <test_13>:
 1cc:	00d00193          	li	gp,13
 1d0:	00000213          	li	tp,0
 1d4:	ffffc0b7          	lui	ra,0xffffc
 1d8:	ccd08093          	addi	ra,ra,-819 # ffffbccd <_end+0xffff9cad>
 1dc:	00002117          	auipc	sp,0x2
 1e0:	e2410113          	addi	sp,sp,-476 # 2000 <begin_signature>
 1e4:	00000013          	nop
 1e8:	00111123          	sh	ra,2(sp)
 1ec:	00211703          	lh	a4,2(sp)
 1f0:	ffffc3b7          	lui	t2,0xffffc
 1f4:	ccd38393          	addi	t2,t2,-819 # ffffbccd <_end+0xffff9cad>
 1f8:	28771263          	bne	a4,t2,47c <fail>
 1fc:	00120213          	addi	tp,tp,1 # 1 <_start+0x1>
 200:	00200293          	li	t0,2
 204:	fc5218e3          	bne	tp,t0,1d4 <test_13+0x8>

00000208 <test_14>:
 208:	00e00193          	li	gp,14
 20c:	00000213          	li	tp,0
 210:	ffffc0b7          	lui	ra,0xffffc
 214:	bcc08093          	addi	ra,ra,-1076 # ffffbbcc <_end+0xffff9bac>
 218:	00002117          	auipc	sp,0x2
 21c:	de810113          	addi	sp,sp,-536 # 2000 <begin_signature>
 220:	00000013          	nop
 224:	00000013          	nop
 228:	00111223          	sh	ra,4(sp)
 22c:	00411703          	lh	a4,4(sp)
 230:	ffffc3b7          	lui	t2,0xffffc
 234:	bcc38393          	addi	t2,t2,-1076 # ffffbbcc <_end+0xffff9bac>
 238:	24771263          	bne	a4,t2,47c <fail>
 23c:	00120213          	addi	tp,tp,1 # 1 <_start+0x1>
 240:	00200293          	li	t0,2
 244:	fc5216e3          	bne	tp,t0,210 <test_14+0x8>

00000248 <test_15>:
 248:	00f00193          	li	gp,15
 24c:	00000213          	li	tp,0
 250:	ffffb0b7          	lui	ra,0xffffb
 254:	bbc08093          	addi	ra,ra,-1092 # ffffabbc <_end+0xffff8b9c>
 258:	00000013          	nop
 25c:	00002117          	auipc	sp,0x2
 260:	da410113          	addi	sp,sp,-604 # 2000 <begin_signature>
 264:	00111323          	sh	ra,6(sp)
 268:	00611703          	lh	a4,6(sp)
 26c:	ffffb3b7          	lui	t2,0xffffb
 270:	bbc38393          	addi	t2,t2,-1092 # ffffabbc <_end+0xffff8b9c>
 274:	20771463          	bne	a4,t2,47c <fail>
 278:	00120213          	addi	tp,tp,1 # 1 <_start+0x1>
 27c:	00200293          	li	t0,2
 280:	fc5218e3          	bne	tp,t0,250 <test_15+0x8>

00000284 <test_16>:
 284:	01000193          	li	gp,16
 288:	00000213          	li	tp,0
 28c:	ffffb0b7          	lui	ra,0xffffb
 290:	abb08093          	addi	ra,ra,-1349 # ffffaabb <_end+0xffff8a9b>
 294:	00000013          	nop
 298:	00002117          	auipc	sp,0x2
 29c:	d6810113          	addi	sp,sp,-664 # 2000 <begin_signature>
 2a0:	00000013          	nop
 2a4:	00111423          	sh	ra,8(sp)
 2a8:	00811703          	lh	a4,8(sp)
 2ac:	ffffb3b7          	lui	t2,0xffffb
 2b0:	abb38393          	addi	t2,t2,-1349 # ffffaabb <_end+0xffff8a9b>
 2b4:	1c771463          	bne	a4,t2,47c <fail>
 2b8:	00120213          	addi	tp,tp,1 # 1 <_start+0x1>
 2bc:	00200293          	li	t0,2
 2c0:	fc5216e3          	bne	tp,t0,28c <test_16+0x8>

000002c4 <test_17>:
 2c4:	01100193          	li	gp,17
 2c8:	00000213          	li	tp,0
 2cc:	ffffe0b7          	lui	ra,0xffffe
 2d0:	aab08093          	addi	ra,ra,-1365 # ffffdaab <_end+0xffffba8b>
 2d4:	00000013          	nop
 2d8:	00000013          	nop
 2dc:	00002117          	auipc	sp,0x2
 2e0:	d2410113          	addi	sp,sp,-732 # 2000 <begin_signature>
 2e4:	00111523          	sh	ra,10(sp)
 2e8:	00a11703          	lh	a4,10(sp)
 2ec:	ffffe3b7          	lui	t2,0xffffe
 2f0:	aab38393          	addi	t2,t2,-1365 # ffffdaab <_end+0xffffba8b>
 2f4:	18771463          	bne	a4,t2,47c <fail>
 2f8:	00120213          	addi	tp,tp,1 # 1 <_start+0x1>
 2fc:	00200293          	li	t0,2
 300:	fc5216e3          	bne	tp,t0,2cc <test_17+0x8>

00000304 <test_18>:
 304:	01200193          	li	gp,18
 308:	00000213          	li	tp,0
 30c:	00002117          	auipc	sp,0x2
 310:	cf410113          	addi	sp,sp,-780 # 2000 <begin_signature>
 314:	000020b7          	lui	ra,0x2
 318:	23308093          	addi	ra,ra,563 # 2233 <_end+0x213>
 31c:	00111023          	sh	ra,0(sp)
 320:	00011703          	lh	a4,0(sp)
 324:	000023b7          	lui	t2,0x2
 328:	23338393          	addi	t2,t2,563 # 2233 <_end+0x213>
 32c:	14771863          	bne	a4,t2,47c <fail>
 330:	00120213          	addi	tp,tp,1 # 1 <_start+0x1>
 334:	00200293          	li	t0,2
 338:	fc521ae3          	bne	tp,t0,30c <test_18+0x8>

0000033c <test_19>:
 33c:	01300193          	li	gp,19
 340:	00000213          	li	tp,0
 344:	00002117          	auipc	sp,0x2
 348:	cbc10113          	addi	sp,sp,-836 # 2000 <begin_signature>
 34c:	000010b7          	lui	ra,0x1
 350:	22308093          	addi	ra,ra,547 # 1223 <fromhost+0x1e3>
 354:	00000013          	nop
 358:	00111123          	sh	ra,2(sp)
 35c:	00211703          	lh	a4,2(sp)
 360:	000013b7          	lui	t2,0x1
 364:	22338393          	addi	t2,t2,547 # 1223 <fromhost+0x1e3>
 368:	10771a63          	bne	a4,t2,47c <fail>
 36c:	00120213          	addi	tp,tp,1 # 1 <_start+0x1>
 370:	00200293          	li	t0,2
 374:	fc5218e3          	bne	tp,t0,344 <test_19+0x8>

00000378 <test_20>:
 378:	01400193          	li	gp,20
 37c:	00000213          	li	tp,0
 380:	00002117          	auipc	sp,0x2
 384:	c8010113          	addi	sp,sp,-896 # 2000 <begin_signature>
 388:	000010b7          	lui	ra,0x1
 38c:	12208093          	addi	ra,ra,290 # 1122 <fromhost+0xe2>
 390:	00000013          	nop
 394:	00000013          	nop
 398:	00111223          	sh	ra,4(sp)
 39c:	00411703          	lh	a4,4(sp)
 3a0:	000013b7          	lui	t2,0x1
 3a4:	12238393          	addi	t2,t2,290 # 1122 <fromhost+0xe2>
 3a8:	0c771a63          	bne	a4,t2,47c <fail>
 3ac:	00120213          	addi	tp,tp,1 # 1 <_start+0x1>
 3b0:	00200293          	li	t0,2
 3b4:	fc5216e3          	bne	tp,t0,380 <test_20+0x8>

000003b8 <test_21>:
 3b8:	01500193          	li	gp,21
 3bc:	00000213          	li	tp,0
 3c0:	00002117          	auipc	sp,0x2
 3c4:	c4010113          	addi	sp,sp,-960 # 2000 <begin_signature>
 3c8:	00000013          	nop
 3cc:	11200093          	li	ra,274
 3d0:	00111323          	sh	ra,6(sp)
 3d4:	00611703          	lh	a4,6(sp)
 3d8:	11200393          	li	t2,274
 3dc:	0a771063          	bne	a4,t2,47c <fail>
 3e0:	00120213          	addi	tp,tp,1 # 1 <_start+0x1>
 3e4:	00200293          	li	t0,2
 3e8:	fc521ce3          	bne	tp,t0,3c0 <test_21+0x8>

000003ec <test_22>:
 3ec:	01600193          	li	gp,22
 3f0:	00000213          	li	tp,0
 3f4:	00002117          	auipc	sp,0x2
 3f8:	c0c10113          	addi	sp,sp,-1012 # 2000 <begin_signature>
 3fc:	00000013          	nop
 400:	01100093          	li	ra,17
 404:	00000013          	nop
 408:	00111423          	sh	ra,8(sp)
 40c:	00811703          	lh	a4,8(sp)
 410:	01100393          	li	t2,17
 414:	06771463          	bne	a4,t2,47c <fail>
 418:	00120213          	addi	tp,tp,1 # 1 <_start+0x1>
 41c:	00200293          	li	t0,2
 420:	fc521ae3          	bne	tp,t0,3f4 <test_22+0x8>

00000424 <test_23>:
 424:	01700193          	li	gp,23
 428:	00000213          	li	tp,0
 42c:	00002117          	auipc	sp,0x2
 430:	bd410113          	addi	sp,sp,-1068 # 2000 <begin_signature>
 434:	00000013          	nop
 438:	00000013          	nop
 43c:	000030b7          	lui	ra,0x3
 440:	00108093          	addi	ra,ra,1 # 3001 <_end+0xfe1>
 444:	00111523          	sh	ra,10(sp)
 448:	00a11703          	lh	a4,10(sp)
 44c:	000033b7          	lui	t2,0x3
 450:	00138393          	addi	t2,t2,1 # 3001 <_end+0xfe1>
 454:	02771463          	bne	a4,t2,47c <fail>
 458:	00120213          	addi	tp,tp,1 # 1 <_start+0x1>
 45c:	00200293          	li	t0,2
 460:	fc5216e3          	bne	tp,t0,42c <test_23+0x8>
 464:	0000c537          	lui	a0,0xc
 468:	eef50513          	addi	a0,a0,-273 # beef <_end+0x9ecf>
 46c:	00002597          	auipc	a1,0x2
 470:	b9458593          	addi	a1,a1,-1132 # 2000 <begin_signature>
 474:	00a59323          	sh	a0,6(a1)
 478:	00301e63          	bne	zero,gp,494 <pass>

0000047c <fail>:
 47c:	00018063          	beqz	gp,47c <fail>
 480:	00119193          	slli	gp,gp,0x1
 484:	0011e193          	ori	gp,gp,1
 488:	05d00893          	li	a7,93
 48c:	00018513          	mv	a0,gp
 490:	00000073          	ecall

00000494 <pass>:
 494:	00100193          	li	gp,1
 498:	05d00893          	li	a7,93
 49c:	00000513          	li	a0,0
 4a0:	00000073          	ecall
 4a4:	c0001073          	unimp
 4a8:	0000                	unimp
 4aa:	0000                	unimp
 4ac:	0000                	unimp
 4ae:	0000                	unimp
 4b0:	0000                	unimp
 4b2:	0000                	unimp
 4b4:	0000                	unimp
 4b6:	0000                	unimp
 4b8:	0000                	unimp
 4ba:	0000                	unimp
 4bc:	0000                	unimp
 4be:	0000                	unimp
 4c0:	0000                	unimp
 4c2:	0000                	unimp
